target datalayout = "e-m:e-p270:32:32-p271:32:32-p272:64:64-i64:64-i128:128-f80:128-n8:16:32:64-S128"
target triple = "x86_64-unknown-linux-gnu"

%"struct.absl::time_internal::cctz::PosixTimeZone" = type { %"class.std::__cxx11::basic_string", i64, %"class.std::__cxx11::basic_string", i64, %"struct.absl::time_internal::cctz::PosixTransition", %"struct.absl::time_internal::cctz::PosixTransition" }
%"class.std::__cxx11::basic_string" = type { %"struct.std::__cxx11::basic_string<char>::_Alloc_hider", i64, %union.anon }
%"struct.std::__cxx11::basic_string<char>::_Alloc_hider" = type { ptr }
%union.anon = type { i64, [8 x i8] }
%"struct.absl::time_internal::cctz::PosixTransition" = type { %"struct.absl::time_internal::cctz::PosixTransition::Date", %"struct.absl::time_internal::cctz::PosixTransition::Time" }
%"struct.absl::time_internal::cctz::PosixTransition::Date" = type { i32, %union.anon.0 }
%union.anon.0 = type { %"struct.absl::time_internal::cctz::PosixTransition::Date::NonLeapDay" }
%"struct.absl::time_internal::cctz::PosixTransition::Date::NonLeapDay" = type { i64 }
%"struct.absl::time_internal::cctz::PosixTransition::Time" = type { i64 }

@.str = private unnamed_addr constant [4 x i8] c"-+,\00", align 1
@_ZN4absl13time_internal4cctz12_GLOBAL__N_17kDigitsE = internal constant [11 x i8] c"0123456789\00", align 1

; Function Attrs: mustprogress uwtable
define internal noundef ptr @_ZN4absl13time_internal4cctz12_GLOBAL__N_19ParseAbbrEPKcPNSt7__cxx1112basic_stringIcSt11char_traitsIcESaIcEEE(ptr noundef %p, ptr noundef %abbr) #0 {
entry:
  %retval = alloca ptr, align 8
  %p.addr = alloca ptr, align 8
  %abbr.addr = alloca ptr, align 8
  %op = alloca ptr, align 8
  store ptr %p, ptr %p.addr, align 8
  store ptr %abbr, ptr %abbr.addr, align 8
  %0 = load ptr, ptr %p.addr, align 8
  store ptr %0, ptr %op, align 8
  %1 = load ptr, ptr %p.addr, align 8
  %2 = load i8, ptr %1, align 1
  %conv = sext i8 %2 to i32
  %cmp = icmp eq i32 %conv, 60
  br i1 %cmp, label %if.then, label %if.end7

if.then:                                          ; preds = %entry
  br label %while.cond

while.cond:                                       ; preds = %if.end, %if.then
  %3 = load ptr, ptr %p.addr, align 8
  %incdec.ptr = getelementptr inbounds i8, ptr %3, i32 1
  store ptr %incdec.ptr, ptr %p.addr, align 8
  %4 = load i8, ptr %incdec.ptr, align 1
  %conv1 = sext i8 %4 to i32
  %cmp2 = icmp ne i32 %conv1, 62
  br i1 %cmp2, label %while.body, label %while.end

while.body:                                       ; preds = %while.cond
  %5 = load ptr, ptr %p.addr, align 8
  %6 = load i8, ptr %5, align 1
  %conv3 = sext i8 %6 to i32
  %cmp4 = icmp eq i32 %conv3, 0
  br i1 %cmp4, label %if.then5, label %if.end

if.then5:                                         ; preds = %while.body
  store ptr null, ptr %retval, align 8
  br label %return

if.end:                                           ; preds = %while.body
  br label %while.cond, !llvm.loop !5

while.end:                                        ; preds = %while.cond
  %7 = load ptr, ptr %abbr.addr, align 8
  %8 = load ptr, ptr %op, align 8
  %add.ptr = getelementptr inbounds i8, ptr %8, i64 1
  %9 = load ptr, ptr %p.addr, align 8
  %10 = load ptr, ptr %op, align 8
  %sub.ptr.lhs.cast = ptrtoint ptr %9 to i64
  %sub.ptr.rhs.cast = ptrtoint ptr %10 to i64
  %sub.ptr.sub = sub i64 %sub.ptr.lhs.cast, %sub.ptr.rhs.cast
  %sub = sub i64 %sub.ptr.sub, 1
  %call = call noundef nonnull align 8 dereferenceable(32) ptr @_ZNSt7__cxx1112basic_stringIcSt11char_traitsIcESaIcEE6assignEPKcm(ptr noundef nonnull align 8 dereferenceable(32) %7, ptr noundef %add.ptr, i64 noundef %sub)
  %11 = load ptr, ptr %p.addr, align 8
  %incdec.ptr6 = getelementptr inbounds i8, ptr %11, i32 1
  store ptr %incdec.ptr6, ptr %p.addr, align 8
  store ptr %incdec.ptr6, ptr %retval, align 8
  br label %return

if.end7:                                          ; preds = %entry
  br label %while.cond8

while.cond8:                                      ; preds = %if.end20, %if.end7
  %12 = load ptr, ptr %p.addr, align 8
  %13 = load i8, ptr %12, align 1
  %conv9 = sext i8 %13 to i32
  %cmp10 = icmp ne i32 %conv9, 0
  br i1 %cmp10, label %while.body11, label %while.end22

while.body11:                                     ; preds = %while.cond8
  %14 = load ptr, ptr %p.addr, align 8
  %15 = load i8, ptr %14, align 1
  %conv12 = sext i8 %15 to i32
  %call13 = call noundef ptr @strchr(ptr noundef @.str, i32 noundef %conv12) #6
  %tobool = icmp ne ptr %call13, null
  br i1 %tobool, label %if.then14, label %if.end15

if.then14:                                        ; preds = %while.body11
  br label %while.end22

if.end15:                                         ; preds = %while.body11
  %16 = load ptr, ptr %p.addr, align 8
  %17 = load i8, ptr %16, align 1
  %conv16 = sext i8 %17 to i32
  %call17 = call noundef ptr @strchr(ptr noundef @_ZN4absl13time_internal4cctz12_GLOBAL__N_17kDigitsE, i32 noundef %conv16) #6
  %tobool18 = icmp ne ptr %call17, null
  br i1 %tobool18, label %if.then19, label %if.end20

if.then19:                                        ; preds = %if.end15
  br label %while.end22

if.end20:                                         ; preds = %if.end15
  %18 = load ptr, ptr %p.addr, align 8
  %incdec.ptr21 = getelementptr inbounds i8, ptr %18, i32 1
  store ptr %incdec.ptr21, ptr %p.addr, align 8
  br label %while.cond8, !llvm.loop !7

while.end22:                                      ; preds = %if.then19, %if.then14, %while.cond8
  %19 = load ptr, ptr %p.addr, align 8
  %20 = load ptr, ptr %op, align 8
  %sub.ptr.lhs.cast23 = ptrtoint ptr %19 to i64
  %sub.ptr.rhs.cast24 = ptrtoint ptr %20 to i64
  %sub.ptr.sub25 = sub i64 %sub.ptr.lhs.cast23, %sub.ptr.rhs.cast24
  %cmp26 = icmp slt i64 %sub.ptr.sub25, 3
  br i1 %cmp26, label %if.then27, label %if.end28

if.then27:                                        ; preds = %while.end22
  store ptr null, ptr %retval, align 8
  br label %return

if.end28:                                         ; preds = %while.end22
  %21 = load ptr, ptr %abbr.addr, align 8
  %22 = load ptr, ptr %op, align 8
  %23 = load ptr, ptr %p.addr, align 8
  %24 = load ptr, ptr %op, align 8
  %sub.ptr.lhs.cast29 = ptrtoint ptr %23 to i64
  %sub.ptr.rhs.cast30 = ptrtoint ptr %24 to i64
  %sub.ptr.sub31 = sub i64 %sub.ptr.lhs.cast29, %sub.ptr.rhs.cast30
  %call32 = call noundef nonnull align 8 dereferenceable(32) ptr @_ZNSt7__cxx1112basic_stringIcSt11char_traitsIcESaIcEE6assignEPKcm(ptr noundef nonnull align 8 dereferenceable(32) %21, ptr noundef %22, i64 noundef %sub.ptr.sub31)
  %25 = load ptr, ptr %p.addr, align 8
  store ptr %25, ptr %retval, align 8
  br label %return

return:                                           ; preds = %if.end28, %if.then27, %while.end, %if.then5
  %26 = load ptr, ptr %retval, align 8
  ret ptr %26
}

; Function Attrs: mustprogress uwtable
define dso_local noundef zeroext i1 @_ZN4absl13time_internal4cctz14ParsePosixSpecERKNSt7__cxx1112basic_stringIcSt11char_traitsIcESaIcEEEPNS1_13PosixTimeZoneE(ptr noundef nonnull align 8 dereferenceable(32) %spec, ptr noundef %res) #0 {
entry:
  %retval = alloca i1, align 1
  %spec.addr = alloca ptr, align 8
  %res.addr = alloca ptr, align 8
  %p = alloca ptr, align 8
  store ptr %spec, ptr %spec.addr, align 8
  store ptr %res, ptr %res.addr, align 8
  %0 = load ptr, ptr %spec.addr, align 8
  %call = call noundef ptr @_ZNKSt7__cxx1112basic_stringIcSt11char_traitsIcESaIcEE5c_strEv(ptr noundef nonnull align 8 dereferenceable(32) %0) #5
  store ptr %call, ptr %p, align 8
  %1 = load ptr, ptr %p, align 8
  %2 = load i8, ptr %1, align 1
  %conv = sext i8 %2 to i32
  %cmp = icmp eq i32 %conv, 58
  br i1 %cmp, label %if.then, label %if.end

if.then:                                          ; preds = %entry
  store i1 false, ptr %retval, align 1
  br label %return

if.end:                                           ; preds = %entry
  %3 = load ptr, ptr %p, align 8
  %4 = load ptr, ptr %res.addr, align 8
  %std_abbr = getelementptr inbounds %"struct.absl::time_internal::cctz::PosixTimeZone", ptr %4, i32 0, i32 0
  %call1 = call noundef ptr @_ZN4absl13time_internal4cctz12_GLOBAL__N_19ParseAbbrEPKcPNSt7__cxx1112basic_stringIcSt11char_traitsIcESaIcEEE(ptr noundef %3, ptr noundef %std_abbr)
  store ptr %call1, ptr %p, align 8
  %5 = load ptr, ptr %p, align 8
  %6 = load ptr, ptr %res.addr, align 8
  %std_offset = getelementptr inbounds %"struct.absl::time_internal::cctz::PosixTimeZone", ptr %6, i32 0, i32 1
  %call2 = call noundef ptr @_ZN4absl13time_internal4cctz12_GLOBAL__N_111ParseOffsetEPKciiiPl(ptr noundef %5, i32 noundef 0, i32 noundef 24, i32 noundef -1, ptr noundef %std_offset)
  store ptr %call2, ptr %p, align 8
  %7 = load ptr, ptr %p, align 8
  %cmp3 = icmp eq ptr %7, null
  br i1 %cmp3, label %if.then4, label %if.end5

if.then4:                                         ; preds = %if.end
  store i1 false, ptr %retval, align 1
  br label %return

if.end5:                                          ; preds = %if.end
  %8 = load ptr, ptr %p, align 8
  %9 = load i8, ptr %8, align 1
  %conv6 = sext i8 %9 to i32
  %cmp7 = icmp eq i32 %conv6, 0
  br i1 %cmp7, label %if.then8, label %if.end9

if.then8:                                         ; preds = %if.end5
  store i1 true, ptr %retval, align 1
  br label %return

if.end9:                                          ; preds = %if.end5
  %10 = load ptr, ptr %p, align 8
  %11 = load ptr, ptr %res.addr, align 8
  %dst_abbr = getelementptr inbounds %"struct.absl::time_internal::cctz::PosixTimeZone", ptr %11, i32 0, i32 2
  %call10 = call noundef ptr @_ZN4absl13time_internal4cctz12_GLOBAL__N_19ParseAbbrEPKcPNSt7__cxx1112basic_stringIcSt11char_traitsIcESaIcEEE(ptr noundef %10, ptr noundef %dst_abbr)
  store ptr %call10, ptr %p, align 8
  %12 = load ptr, ptr %p, align 8
  %cmp11 = icmp eq ptr %12, null
  br i1 %cmp11, label %if.then12, label %if.end13

if.then12:                                        ; preds = %if.end9
  store i1 false, ptr %retval, align 1
  br label %return

if.end13:                                         ; preds = %if.end9
  %13 = load ptr, ptr %res.addr, align 8
  %std_offset14 = getelementptr inbounds %"struct.absl::time_internal::cctz::PosixTimeZone", ptr %13, i32 0, i32 1
  %14 = load i64, ptr %std_offset14, align 8
  %add = add nsw i64 %14, 3600
  %15 = load ptr, ptr %res.addr, align 8
  %dst_offset = getelementptr inbounds %"struct.absl::time_internal::cctz::PosixTimeZone", ptr %15, i32 0, i32 3
  store i64 %add, ptr %dst_offset, align 8
  %16 = load ptr, ptr %p, align 8
  %17 = load i8, ptr %16, align 1
  %conv15 = sext i8 %17 to i32
  %cmp16 = icmp ne i32 %conv15, 44
  br i1 %cmp16, label %if.then17, label %if.end20

if.then17:                                        ; preds = %if.end13
  %18 = load ptr, ptr %p, align 8
  %19 = load ptr, ptr %res.addr, align 8
  %dst_offset18 = getelementptr inbounds %"struct.absl::time_internal::cctz::PosixTimeZone", ptr %19, i32 0, i32 3
  %call19 = call noundef ptr @_ZN4absl13time_internal4cctz12_GLOBAL__N_111ParseOffsetEPKciiiPl(ptr noundef %18, i32 noundef 0, i32 noundef 24, i32 noundef -1, ptr noundef %dst_offset18)
  store ptr %call19, ptr %p, align 8
  br label %if.end20

if.end20:                                         ; preds = %if.then17, %if.end13
  %20 = load ptr, ptr %p, align 8
  %21 = load ptr, ptr %res.addr, align 8
  %dst_start = getelementptr inbounds %"struct.absl::time_internal::cctz::PosixTimeZone", ptr %21, i32 0, i32 4
  %call21 = call noundef ptr @_ZN4absl13time_internal4cctz12_GLOBAL__N_113ParseDateTimeEPKcPNS1_15PosixTransitionE(ptr noundef %20, ptr noundef %dst_start)
  store ptr %call21, ptr %p, align 8
  %22 = load ptr, ptr %p, align 8
  %23 = load ptr, ptr %res.addr, align 8
  %dst_end = getelementptr inbounds %"struct.absl::time_internal::cctz::PosixTimeZone", ptr %23, i32 0, i32 5
  %call22 = call noundef ptr @_ZN4absl13time_internal4cctz12_GLOBAL__N_113ParseDateTimeEPKcPNS1_15PosixTransitionE(ptr noundef %22, ptr noundef %dst_end)
  store ptr %call22, ptr %p, align 8
  %24 = load ptr, ptr %p, align 8
  %cmp23 = icmp ne ptr %24, null
  br i1 %cmp23, label %land.rhs, label %land.end

land.rhs:                                         ; preds = %if.end20
  %25 = load ptr, ptr %p, align 8
  %26 = load i8, ptr %25, align 1
  %conv24 = sext i8 %26 to i32
  %cmp25 = icmp eq i32 %conv24, 0
  br label %land.end

land.end:                                         ; preds = %land.rhs, %if.end20
  %27 = phi i1 [ false, %if.end20 ], [ %cmp25, %land.rhs ]
  store i1 %27, ptr %retval, align 1
  br label %return

return:                                           ; preds = %land.end, %if.then12, %if.then8, %if.then4, %if.then
  %28 = load i1, ptr %retval, align 1
  ret i1 %28
}