; Function Attrs: mustprogress uwtable
define dso_local noundef zeroext i1 @_ZN4absl13time_internal4cctz14ParsePosixSpecERKNSt7__cxx1112basic_stringIcSt11char_traitsIcESaIcEEEPNS1_13PosixTimeZoneE(ptr noundef nonnull align 8 dereferenceable(32) %spec, ptr noundef %res) local_unnamed_addr #0 {
entry:
  %call = tail call noundef ptr @_ZNKSt7__cxx1112basic_stringIcSt11char_traitsIcESaIcEE5c_strEv(ptr noundef nonnull align 8 dereferenceable(32) %spec) #6
  %0 = load i8, ptr %call, align 1
  switch i8 %0, label %while.body11.i [
    i8 58, label %return
    i8 60, label %while.cond.i
    i8 0, label %while.end22.i
  ]

while.cond.i:                                     ; preds = %entry, %while.cond.i
  %p.addr.0.i = phi ptr [ %incdec.ptr.i, %while.cond.i ], [ %call, %entry ]
  %incdec.ptr.i = getelementptr inbounds nuw i8, ptr %p.addr.0.i, i64 1
  %1 = load i8, ptr %incdec.ptr.i, align 1
  switch i8 %1, label %while.cond.i [
    i8 62, label %while.end.i
    i8 0, label %_ZN4absl13time_internal4cctz12_GLOBAL__N_19ParseAbbrEPKcPNSt7__cxx1112basic_stringIcSt11char_traitsIcESaIcEEE.exit
  ]

while.end.i:                                      ; preds = %while.cond.i
  %add.ptr.i = getelementptr inbounds nuw i8, ptr %call, i64 1
  %sub.ptr.lhs.cast.i = ptrtoint ptr %incdec.ptr.i to i64
  %sub.ptr.rhs.cast.i = ptrtoint ptr %call to i64
  %2 = xor i64 %sub.ptr.rhs.cast.i, -1
  %sub.i = add i64 %sub.ptr.lhs.cast.i, %2
  %call.i = tail call noundef nonnull align 8 dereferenceable(32) ptr @_ZNSt7__cxx1112basic_stringIcSt11char_traitsIcESaIcEE6assignEPKcm(ptr noundef nonnull align 8 dereferenceable(32) %res, ptr noundef nonnull %add.ptr.i, i64 noundef %sub.i)
  %incdec.ptr6.i = getelementptr inbounds nuw i8, ptr %p.addr.0.i, i64 2
  br label %_ZN4absl13time_internal4cctz12_GLOBAL__N_19ParseAbbrEPKcPNSt7__cxx1112basic_stringIcSt11char_traitsIcESaIcEEE.exit

while.body11.i:                                   ; preds = %entry, %if.end20.i
  %p.addr.125.i = phi ptr [ %incdec.ptr21.i, %if.end20.i ], [ %call, %entry ]
  %3 = phi i8 [ %.pr.i, %if.end20.i ], [ %0, %entry ]
  %4 = zext nneg i8 %3 to i64
  %memchr.bounds.i = icmp ugt i8 %3, 63
  %5 = shl nuw i64 1, %4
  %6 = and i64 %5, 61572651155457
  %memchr.bits.i = icmp eq i64 %6, 0
  %memchr18.not.i = select i1 %memchr.bounds.i, i1 true, i1 %memchr.bits.i
  br i1 %memchr18.not.i, label %if.end15.i, label %while.end22.i

if.end15.i:                                       ; preds = %while.body11.i
  %7 = and i64 %5, 287948901175001089
  %memchr.bits20.i = icmp eq i64 %7, 0
  %memchr21.not.i = select i1 %memchr.bounds.i, i1 true, i1 %memchr.bits20.i
  br i1 %memchr21.not.i, label %if.end20.i, label %while.end22.i

if.end20.i:                                       ; preds = %if.end15.i
  %incdec.ptr21.i = getelementptr inbounds nuw i8, ptr %p.addr.125.i, i64 1
  %.pr.i = load i8, ptr %incdec.ptr21.i, align 1
  %cmp10.not.i = icmp eq i8 %.pr.i, 0
  br i1 %cmp10.not.i, label %while.end22.i, label %while.body11.i, !llvm.loop !5

while.end22.i:                                    ; preds = %if.end20.i, %if.end15.i, %while.body11.i, %entry
  %p.addr.1.lcssa.i = phi ptr [ %call, %entry ], [ %incdec.ptr21.i, %if.end20.i ], [ %p.addr.125.i, %while.body11.i ], [ %p.addr.125.i, %if.end15.i ]
  %sub.ptr.lhs.cast23.i = ptrtoint ptr %p.addr.1.lcssa.i to i64
  %sub.ptr.rhs.cast24.i = ptrtoint ptr %call to i64
  %sub.ptr.sub25.i = sub i64 %sub.ptr.lhs.cast23.i, %sub.ptr.rhs.cast24.i
  %cmp26.i = icmp slt i64 %sub.ptr.sub25.i, 3
  br i1 %cmp26.i, label %_ZN4absl13time_internal4cctz12_GLOBAL__N_19ParseAbbrEPKcPNSt7__cxx1112basic_stringIcSt11char_traitsIcESaIcEEE.exit, label %if.end28.i

if.end28.i:                                       ; preds = %while.end22.i
  %call32.i = tail call noundef nonnull align 8 dereferenceable(32) ptr @_ZNSt7__cxx1112basic_stringIcSt11char_traitsIcESaIcEE6assignEPKcm(ptr noundef nonnull align 8 dereferenceable(32) %res, ptr noundef nonnull %call, i64 noundef %sub.ptr.sub25.i)
  br label %_ZN4absl13time_internal4cctz12_GLOBAL__N_19ParseAbbrEPKcPNSt7__cxx1112basic_stringIcSt11char_traitsIcESaIcEEE.exit

_ZN4absl13time_internal4cctz12_GLOBAL__N_19ParseAbbrEPKcPNSt7__cxx1112basic_stringIcSt11char_traitsIcESaIcEEE.exit: ; preds = %while.cond.i, %while.end.i, %while.end22.i, %if.end28.i
  %retval.0.i = phi ptr [ %incdec.ptr6.i, %while.end.i ], [ %p.addr.1.lcssa.i, %if.end28.i ], [ null, %while.end22.i ], [ null, %while.cond.i ]
  %std_offset = getelementptr inbounds nuw i8, ptr %res, i64 32
  %call2 = tail call fastcc noundef ptr @_ZN4absl13time_internal4cctz12_GLOBAL__N_111ParseOffsetEPKciiiPl(ptr noundef %retval.0.i, i32 noundef 0, i32 noundef 24, i32 noundef -1, ptr noundef nonnull %std_offset)
  %cmp3 = icmp eq ptr %call2, null
  br i1 %cmp3, label %return, label %if.end5

if.end5:                                          ; preds = %_ZN4absl13time_internal4cctz12_GLOBAL__N_19ParseAbbrEPKcPNSt7__cxx1112basic_stringIcSt11char_traitsIcESaIcEEE.exit
  %8 = load i8, ptr %call2, align 1
  %cmp7 = icmp eq i8 %8, 0
  br i1 %cmp7, label %return, label %if.end9

if.end9:                                          ; preds = %if.end5
  %dst_abbr = getelementptr inbounds nuw i8, ptr %res, i64 40
  %cond = icmp eq i8 %8, 60
  br i1 %cond, label %while.cond.i29, label %while.body11.i39

while.cond.i29:                                   ; preds = %if.end9, %while.cond.i29
  %p.addr.0.i30 = phi ptr [ %incdec.ptr.i31, %while.cond.i29 ], [ %call2, %if.end9 ]
  %incdec.ptr.i31 = getelementptr inbounds nuw i8, ptr %p.addr.0.i30, i64 1
  %9 = load i8, ptr %incdec.ptr.i31, align 1
  switch i8 %9, label %while.cond.i29 [
    i8 62, label %while.end.i32
    i8 0, label %return
  ]

while.end.i32:                                    ; preds = %while.cond.i29
  %add.ptr.i33 = getelementptr inbounds nuw i8, ptr %call2, i64 1
  %sub.ptr.lhs.cast.i34 = ptrtoint ptr %incdec.ptr.i31 to i64
  %sub.ptr.rhs.cast.i35 = ptrtoint ptr %call2 to i64
  %10 = xor i64 %sub.ptr.rhs.cast.i35, -1
  %sub.i36 = add i64 %sub.ptr.lhs.cast.i34, %10
  %call.i37 = tail call noundef nonnull align 8 dereferenceable(32) ptr @_ZNSt7__cxx1112basic_stringIcSt11char_traitsIcESaIcEE6assignEPKcm(ptr noundef nonnull align 8 dereferenceable(32) %dst_abbr, ptr noundef nonnull %add.ptr.i33, i64 noundef %sub.i36)
  %incdec.ptr6.i38 = getelementptr inbounds nuw i8, ptr %p.addr.0.i30, i64 2
  br label %if.end13

while.body11.i39:                                 ; preds = %if.end9, %if.end20.i47
  %p.addr.125.i40 = phi ptr [ %incdec.ptr21.i48, %if.end20.i47 ], [ %call2, %if.end9 ]
  %11 = phi i8 [ %.pr.i49, %if.end20.i47 ], [ %8, %if.end9 ]
  %12 = zext nneg i8 %11 to i64
  %memchr.bounds.i41 = icmp ugt i8 %11, 63
  %13 = shl nuw i64 1, %12
  %14 = and i64 %13, 61572651155457
  %memchr.bits.i42 = icmp eq i64 %14, 0
  %memchr18.not.i43 = select i1 %memchr.bounds.i41, i1 true, i1 %memchr.bits.i42
  br i1 %memchr18.not.i43, label %if.end15.i44, label %while.end22.i20

if.end15.i44:                                     ; preds = %while.body11.i39
  %15 = and i64 %13, 287948901175001089
  %memchr.bits20.i45 = icmp eq i64 %15, 0
  %memchr21.not.i46 = select i1 %memchr.bounds.i41, i1 true, i1 %memchr.bits20.i45
  br i1 %memchr21.not.i46, label %if.end20.i47, label %while.end22.i20

if.end20.i47:                                     ; preds = %if.end15.i44
  %incdec.ptr21.i48 = getelementptr inbounds nuw i8, ptr %p.addr.125.i40, i64 1
  %.pr.i49 = load i8, ptr %incdec.ptr21.i48, align 1
  %cmp10.not.i50 = icmp eq i8 %.pr.i49, 0
  br i1 %cmp10.not.i50, label %while.end22.i20, label %while.body11.i39, !llvm.loop !5

while.end22.i20:                                  ; preds = %if.end20.i47, %if.end15.i44, %while.body11.i39
  %p.addr.1.lcssa.i21 = phi ptr [ %p.addr.125.i40, %if.end15.i44 ], [ %p.addr.125.i40, %while.body11.i39 ], [ %incdec.ptr21.i48, %if.end20.i47 ]
  %sub.ptr.lhs.cast23.i22 = ptrtoint ptr %p.addr.1.lcssa.i21 to i64
  %sub.ptr.rhs.cast24.i23 = ptrtoint ptr %call2 to i64
  %sub.ptr.sub25.i24 = sub i64 %sub.ptr.lhs.cast23.i22, %sub.ptr.rhs.cast24.i23
  %cmp26.i25 = icmp slt i64 %sub.ptr.sub25.i24, 3
  br i1 %cmp26.i25, label %return, label %if.end28.i26

if.end28.i26:                                     ; preds = %while.end22.i20
  %call32.i27 = tail call noundef nonnull align 8 dereferenceable(32) ptr @_ZNSt7__cxx1112basic_stringIcSt11char_traitsIcESaIcEE6assignEPKcm(ptr noundef nonnull align 8 dereferenceable(32) %dst_abbr, ptr noundef nonnull %call2, i64 noundef %sub.ptr.sub25.i24)
  br label %if.end13

if.end13:                                         ; preds = %if.end28.i26, %while.end.i32
  %retval.0.i28 = phi ptr [ %incdec.ptr6.i38, %while.end.i32 ], [ %p.addr.1.lcssa.i21, %if.end28.i26 ]
  %16 = load i64, ptr %std_offset, align 8
  %add = add nsw i64 %16, 3600
  %dst_offset = getelementptr inbounds nuw i8, ptr %res, i64 72
  store i64 %add, ptr %dst_offset, align 8
  %17 = load i8, ptr %retval.0.i28, align 1
  %cmp16.not = icmp eq i8 %17, 44
  br i1 %cmp16.not, label %if.end20, label %if.then17

if.then17:                                        ; preds = %if.end13
  %call19 = tail call fastcc noundef ptr @_ZN4absl13time_internal4cctz12_GLOBAL__N_111ParseOffsetEPKciiiPl(ptr noundef nonnull %retval.0.i28, i32 noundef 0, i32 noundef 24, i32 noundef -1, ptr noundef nonnull %dst_offset)
  br label %if.end20

if.end20:                                         ; preds = %if.then17, %if.end13
  %p.0 = phi ptr [ %call19, %if.then17 ], [ %retval.0.i28, %if.end13 ]
  %dst_start = getelementptr inbounds nuw i8, ptr %res, i64 80
  %call21 = tail call fastcc noundef ptr @_ZN4absl13time_internal4cctz12_GLOBAL__N_113ParseDateTimeEPKcPNS1_15PosixTransitionE(ptr noundef %p.0, ptr noundef nonnull %dst_start)
  %dst_end = getelementptr inbounds nuw i8, ptr %res, i64 104
  %call22 = tail call fastcc noundef ptr @_ZN4absl13time_internal4cctz12_GLOBAL__N_113ParseDateTimeEPKcPNS1_15PosixTransitionE(ptr noundef %call21, ptr noundef nonnull %dst_end)
  %cmp23.not = icmp eq ptr %call22, null
  br i1 %cmp23.not, label %return, label %land.rhs

land.rhs:                                         ; preds = %if.end20
  %18 = load i8, ptr %call22, align 1
  %cmp25 = icmp eq i8 %18, 0
  br label %return

return:                                           ; preds = %while.cond.i29, %entry, %while.end22.i20, %if.end20, %land.rhs, %if.end5, %_ZN4absl13time_internal4cctz12_GLOBAL__N_19ParseAbbrEPKcPNSt7__cxx1112basic_stringIcSt11char_traitsIcESaIcEEE.exit
  %retval.0 = phi i1 [ false, %entry ], [ false, %_ZN4absl13time_internal4cctz12_GLOBAL__N_19ParseAbbrEPKcPNSt7__cxx1112basic_stringIcSt11char_traitsIcESaIcEEE.exit ], [ true, %if.end5 ], [ false, %if.end20 ], [ %cmp25, %land.rhs ], [ false, %while.end22.i20 ], [ false, %while.cond.i29 ]
  ret i1 %retval.0
}